target datalayout = "e-m:e-p270:32:32-p271:32:32-p272:64:64-i64:64-i128:128-f80:128-n8:16:32:64-S128"
target triple = "x86_64-pc-linux-gnu"

%struct.Map_ManStruct_t_ = type { ptr, i32, ptr, i32, ptr, i32, i32, ptr, ptr, ptr, ptr, ptr, ptr, ptr, i32, i32, i32, i32, float, float, float, float, i32, i32, float, i32, i32, i32, i32, ptr, [6 x [2 x i32]], [10 x [32 x i32]], [32 x i32], [32 x i32], ptr, ptr, ptr, ptr, ptr, ptr, i32, i32, i32, i32, i32, i32, i64, i64, i64, i64, i64, i64, i64, i64, i64, i64, i64 }
%struct.Map_NodeStruct_t_ = type { ptr, ptr, i32, i32, i32, i32, [3 x i32], [3 x float], float, ptr, ptr, ptr, ptr, [2 x %struct.Map_TimeStruct_t_], [2 x %struct.Map_TimeStruct_t_], [2 x ptr], ptr, ptr, ptr }
%struct.Map_TimeStruct_t_ = type { float, float, float }

; Function Attrs: nounwind uwtable
define float @Map_TimeComputeArrivalMax(ptr noundef %0) #0 {
  %2 = alloca ptr, align 8
  %3 = alloca float, align 4
  %4 = alloca float, align 4
  %5 = alloca i32, align 4
  %6 = alloca i32, align 4
  store ptr %0, ptr %2, align 8
  store float 0xC7B9999980000000, ptr %3, align 4
  store i32 0, ptr %5, align 4
  br label %7

7:                                                ; preds = %63, %1
  %8 = load i32, ptr %5, align 4
  %9 = load ptr, ptr %2, align 8
  %10 = getelementptr inbounds %struct.Map_ManStruct_t_, ptr %9, i32 0, i32 5
  %11 = load i32, ptr %10, align 8
  %12 = icmp slt i32 %8, %11
  br i1 %12, label %13, label %66

13:                                               ; preds = %7
  %14 = load ptr, ptr %2, align 8
  %15 = getelementptr inbounds %struct.Map_ManStruct_t_, ptr %14, i32 0, i32 4
  %16 = load ptr, ptr %15, align 8
  %17 = load i32, ptr %5, align 4
  %18 = sext i32 %17 to i64
  %19 = getelementptr inbounds ptr, ptr %16, i64 %18
  %20 = load ptr, ptr %19, align 8
  %21 = call i32 @Map_NodeIsConst(ptr noundef %20)
  %22 = icmp ne i32 %21, 0
  br i1 %22, label %23, label %24

23:                                               ; preds = %13
  br label %63

24:                                               ; preds = %13
  %25 = load ptr, ptr %2, align 8
  %26 = getelementptr inbounds %struct.Map_ManStruct_t_, ptr %25, i32 0, i32 4
  %27 = load ptr, ptr %26, align 8
  %28 = load i32, ptr %5, align 4
  %29 = sext i32 %28 to i64
  %30 = getelementptr inbounds ptr, ptr %27, i64 %29
  %31 = load ptr, ptr %30, align 8
  %32 = ptrtoint ptr %31 to i64
  %33 = and i64 %32, 1
  %34 = trunc i64 %33 to i32
  %35 = icmp ne i32 %34, 0
  %36 = xor i1 %35, true
  %37 = zext i1 %36 to i32
  store i32 %37, ptr %6, align 4
  %38 = load ptr, ptr %2, align 8
  %39 = getelementptr inbounds %struct.Map_ManStruct_t_, ptr %38, i32 0, i32 4
  %40 = load ptr, ptr %39, align 8
  %41 = load i32, ptr %5, align 4
  %42 = sext i32 %41 to i64
  %43 = getelementptr inbounds ptr, ptr %40, i64 %42
  %44 = load ptr, ptr %43, align 8
  %45 = ptrtoint ptr %44 to i64
  %46 = and i64 %45, -2
  %47 = inttoptr i64 %46 to ptr
  %48 = getelementptr inbounds %struct.Map_NodeStruct_t_, ptr %47, i32 0, i32 13
  %49 = load i32, ptr %6, align 4
  %50 = sext i32 %49 to i64
  %51 = getelementptr inbounds [2 x %struct.Map_TimeStruct_t_], ptr %48, i64 0, i64 %50
  %52 = getelementptr inbounds %struct.Map_TimeStruct_t_, ptr %51, i32 0, i32 2
  %53 = load float, ptr %52, align 4
  store float %53, ptr %4, align 4
  %54 = load float, ptr %3, align 4
  %55 = load float, ptr %4, align 4
  %56 = fcmp ogt float %54, %55
  br i1 %56, label %57, label %59

57:                                               ; preds = %24
  %58 = load float, ptr %3, align 4
  br label %61

59:                                               ; preds = %24
  %60 = load float, ptr %4, align 4
  br label %61

61:                                               ; preds = %59, %57
  %62 = phi float [ %58, %57 ], [ %60, %59 ]
  store float %62, ptr %3, align 4
  br label %63

63:                                               ; preds = %61, %23
  %64 = load i32, ptr %5, align 4
  %65 = add nsw i32 %64, 1
  store i32 %65, ptr %5, align 4
  br label %7, !llvm.loop !4

66:                                               ; preds = %7
  %67 = load float, ptr %3, align 4
  ret float %67
}