; Function Attrs: nounwind uwtable
define float @Map_TimeComputeArrivalMax(ptr noundef readonly captures(none) %0) local_unnamed_addr #0 {
  %2 = getelementptr inbounds nuw i8, ptr %0, i64 40
  %3 = load i32, ptr %2, align 8
  %4 = icmp sgt i32 %3, 0
  br i1 %4, label %.lr.ph, label %._crit_edge

.lr.ph:                                           ; preds = %1
  %5 = getelementptr inbounds nuw i8, ptr %0, i64 32
  br label %6

6:                                                ; preds = %.lr.ph, %25
  %indvars.iv = phi i64 [ 0, %.lr.ph ], [ %indvars.iv.next, %25 ]
  %.017 = phi float [ 0xC7B9999980000000, %.lr.ph ], [ %.1, %25 ]
  %7 = load ptr, ptr %5, align 8
  %8 = getelementptr inbounds nuw ptr, ptr %7, i64 %indvars.iv
  %9 = load ptr, ptr %8, align 8
  %10 = tail call i32 @Map_NodeIsConst(ptr noundef %9) #6
  %.not = icmp eq i32 %10, 0
  br i1 %.not, label %11, label %25

11:                                               ; preds = %6
  %12 = load ptr, ptr %5, align 8
  %13 = getelementptr inbounds nuw ptr, ptr %12, i64 %indvars.iv
  %14 = load ptr, ptr %13, align 8
  %15 = ptrtoint ptr %14 to i64
  %16 = and i64 %15, 1
  %17 = xor i64 %16, 1
  %18 = and i64 %15, -2
  %19 = inttoptr i64 %18 to ptr
  %.idx = mul nuw nsw i64 %17, 12
  %20 = getelementptr i8, ptr %19, i64 104
  %21 = getelementptr i8, ptr %20, i64 %.idx
  %22 = load float, ptr %21, align 4
  %23 = fcmp ogt float %.017, %22
  %24 = select i1 %23, float %.017, float %22
  br label %25

25:                                               ; preds = %6, %11
  %.1 = phi float [ %.017, %6 ], [ %24, %11 ]
  %indvars.iv.next = add nuw nsw i64 %indvars.iv, 1
  %26 = load i32, ptr %2, align 8
  %27 = sext i32 %26 to i64
  %28 = icmp slt i64 %indvars.iv.next, %27
  br i1 %28, label %6, label %._crit_edge, !llvm.loop !4

._crit_edge:                                      ; preds = %25, %1
  %.0.lcssa = phi float [ 0xC7B9999980000000, %1 ], [ %.1, %25 ]
  ret float %.0.lcssa
}